; Function Attrs: mustprogress nofree norecurse nosync nounwind willreturn memory(read, inaccessiblemem: none) uwtable
define dso_local noundef i64 @_ZNK13ArrayVariable8get_sizeEv(ptr nocapture noundef nonnull readonly align 8 dereferenceable(288) %0) local_unnamed_addr #8 align 2 {
  %2 = getelementptr inbounds i8, ptr %0, i64 216
  %3 = getelementptr inbounds i8, ptr %0, i64 224
  %4 = load ptr, ptr %3, align 8
  %5 = load ptr, ptr %2, align 8
  %.not = icmp eq ptr %4, %5
  br i1 %.not, label %._crit_edge, label %.lr.ph.preheader

.lr.ph.preheader:                                 ; preds = %1
  %6 = ptrtoint ptr %4 to i64
  %7 = ptrtoint ptr %5 to i64
  %8 = sub i64 %6, %7
  %9 = ashr exact i64 %8, 2
  %umax = tail call i64 @llvm.umax.i64(i64 %9, i64 1)
  br label %.lr.ph

.lr.ph:                                           ; preds = %.lr.ph.preheader, %.lr.ph
  %.07 = phi i64 [ %13, %.lr.ph ], [ 1, %.lr.ph.preheader ]
  %.056 = phi i64 [ %14, %.lr.ph ], [ 0, %.lr.ph.preheader ]
  %10 = getelementptr inbounds i32, ptr %5, i64 %.056
  %11 = load i32, ptr %10, align 4
  %12 = zext i32 %11 to i64
  %13 = mul i64 %.07, %12
  %14 = add nuw i64 %.056, 1
  %exitcond.not = icmp eq i64 %14, %umax
  br i1 %exitcond.not, label %._crit_edge, label %.lr.ph, !llvm.loop !10

._crit_edge:                                      ; preds = %.lr.ph, %1
  %.0.lcssa = phi i64 [ 1, %1 ], [ %13, %.lr.ph ]
  ret i64 %.0.lcssa
}